target datalayout = "e-m:e-p270:32:32-p271:32:32-p272:64:64-i64:64-i128:128-f80:128-n8:16:32:64-S128"
target triple = "x86_64-pc-linux-gnu"

%"struct.faiss::IndexPreTransform" = type <{ %"struct.faiss::Index.base", [4 x i8], %"class.std::vector", ptr, i8, [7 x i8] }>
%"struct.faiss::Index.base" = type <{ ptr, i32, [4 x i8], i64, i8, i8, [2 x i8], i32, float }>
%"class.std::vector" = type { %"struct.std::_Vector_base" }
%"struct.std::_Vector_base" = type { %"struct.std::_Vector_base<faiss::VectorTransform *, std::allocator<faiss::VectorTransform *>>::_Vector_impl" }
%"struct.std::_Vector_base<faiss::VectorTransform *, std::allocator<faiss::VectorTransform *>>::_Vector_impl" = type { %"struct.std::_Vector_base<faiss::VectorTransform *, std::allocator<faiss::VectorTransform *>>::_Vector_impl_data" }
%"struct.std::_Vector_base<faiss::VectorTransform *, std::allocator<faiss::VectorTransform *>>::_Vector_impl_data" = type { ptr, ptr, ptr }
%"struct.faiss::Index" = type <{ ptr, i32, [4 x i8], i64, i8, i8, [2 x i8], i32, float, [4 x i8] }>

; Function Attrs: mustprogress uwtable
define void @_ZN5faiss17IndexPreTransform10merge_fromERNS_5IndexEl(ptr noundef nonnull align 8 dereferenceable(73) %0, ptr noundef nonnull align 8 dereferenceable(36) %1, i64 noundef %2) unnamed_addr #1 align 2 {
  %4 = alloca ptr, align 8
  %5 = alloca ptr, align 8
  %6 = alloca i64, align 8
  %7 = alloca ptr, align 8
  store ptr %0, ptr %4, align 8, !tbaa !4
  store ptr %1, ptr %5, align 8, !tbaa !65
  store i64 %2, ptr %6, align 8, !tbaa !9
  %8 = load ptr, ptr %4, align 8
  %9 = load ptr, ptr %5, align 8, !tbaa !65
  %10 = load ptr, ptr %8, align 8, !tbaa !47
  %11 = getelementptr inbounds ptr, ptr %10, i64 21
  %12 = load ptr, ptr %11, align 8
  call void %12(ptr noundef nonnull align 8 dereferenceable(73) %8, ptr noundef nonnull align 8 dereferenceable(36) %9)
  call void @llvm.lifetime.start.p0(i64 8, ptr %7) #18
  %13 = load ptr, ptr %5, align 8, !tbaa !65
  store ptr %13, ptr %7, align 8, !tbaa !4
  %14 = getelementptr inbounds nuw %"struct.faiss::IndexPreTransform", ptr %8, i32 0, i32 3
  %15 = load ptr, ptr %14, align 8, !tbaa !15
  %16 = load ptr, ptr %7, align 8, !tbaa !4
  %17 = getelementptr inbounds nuw %"struct.faiss::IndexPreTransform", ptr %16, i32 0, i32 3
  %18 = load ptr, ptr %17, align 8, !tbaa !15
  %19 = load i64, ptr %6, align 8, !tbaa !9
  %20 = load ptr, ptr %15, align 8, !tbaa !47
  %21 = getelementptr inbounds ptr, ptr %20, i64 20
  %22 = load ptr, ptr %21, align 8
  call void %22(ptr noundef nonnull align 8 dereferenceable(36) %15, ptr noundef nonnull align 8 dereferenceable(36) %18, i64 noundef %19)
  %23 = getelementptr inbounds nuw %"struct.faiss::IndexPreTransform", ptr %8, i32 0, i32 3
  %24 = load ptr, ptr %23, align 8, !tbaa !15
  %25 = getelementptr inbounds nuw %"struct.faiss::Index", ptr %24, i32 0, i32 3
  %26 = load i64, ptr %25, align 8, !tbaa !52
  %27 = getelementptr inbounds nuw %"struct.faiss::Index", ptr %8, i32 0, i32 3
  store i64 %26, ptr %27, align 8, !tbaa !52
  call void @llvm.lifetime.end.p0(i64 8, ptr %7) #18
  ret void
}