; Function Attrs: mustprogress uwtable
define void @_ZN5faiss17IndexPreTransform10merge_fromERNS_5IndexEl(ptr noundef nonnull align 8 dereferenceable(73) %0, ptr noundef nonnull align 8 dereferenceable(36) %1, i64 noundef %2) unnamed_addr #1 align 2 {
  %4 = load ptr, ptr %0, align 8, !tbaa !42
  %5 = getelementptr inbounds nuw i8, ptr %4, i64 168
  %6 = load ptr, ptr %5, align 8
  tail call void %6(ptr noundef nonnull align 8 dereferenceable(73) %0, ptr noundef nonnull align 8 dereferenceable(36) %1)
  %7 = getelementptr inbounds nuw i8, ptr %0, i64 64
  %8 = load ptr, ptr %7, align 8, !tbaa !4
  %9 = getelementptr inbounds nuw i8, ptr %1, i64 64
  %10 = load ptr, ptr %9, align 8, !tbaa !4
  %11 = load ptr, ptr %8, align 8, !tbaa !42
  %12 = getelementptr inbounds nuw i8, ptr %11, i64 160
  %13 = load ptr, ptr %12, align 8
  tail call void %13(ptr noundef nonnull align 8 dereferenceable(36) %8, ptr noundef nonnull align 8 dereferenceable(36) %10, i64 noundef %2)
  %14 = load ptr, ptr %7, align 8, !tbaa !4
  %15 = getelementptr inbounds nuw i8, ptr %14, i64 16
  %16 = load i64, ptr %15, align 8, !tbaa !52
  %17 = getelementptr inbounds nuw i8, ptr %0, i64 16
  store i64 %16, ptr %17, align 8, !tbaa !52
  ret void
}